target datalayout = "e-m:e-p270:32:32-p271:32:32-p272:64:64-i64:64-i128:128-f80:128-n8:16:32:64-S128"
target triple = "x86_64-pc-linux-gnu"

%struct.Vec_Int_t_ = type { i32, i32, ptr }
%struct.Abc_Obj_t_ = type { ptr, ptr, i32, i32, %struct.Vec_Int_t_, %struct.Vec_Int_t_, %union.anon, %union.anon.0 }
%union.anon = type { ptr }
%union.anon.0 = type { ptr }
%struct.Vec_Ptr_t_ = type { i32, i32, ptr }

; Function Attrs: inlinehint nounwind uwtable
define internal ptr @Abc_ObjRegular(ptr noundef %0) #3 {
  %2 = alloca ptr, align 8
  store ptr %0, ptr %2, align 8, !tbaa !28
  %3 = load ptr, ptr %2, align 8, !tbaa !28
  %4 = ptrtoint ptr %3 to i64
  %5 = and i64 %4, -2
  %6 = inttoptr i64 %5 to ptr
  ret ptr %6
}

; Function Attrs: inlinehint nounwind uwtable
define internal ptr @Vec_PtrEntry(ptr noundef %0, i32 noundef %1) #3 {
  %3 = alloca ptr, align 8
  %4 = alloca i32, align 4
  store ptr %0, ptr %3, align 8, !tbaa !43
  store i32 %1, ptr %4, align 4, !tbaa !8
  %5 = load ptr, ptr %3, align 8, !tbaa !43
  %6 = getelementptr inbounds nuw %struct.Vec_Ptr_t_, ptr %5, i32 0, i32 2
  %7 = load ptr, ptr %6, align 8, !tbaa !47
  %8 = load i32, ptr %4, align 4, !tbaa !8
  %9 = sext i32 %8 to i64
  %10 = getelementptr inbounds ptr, ptr %7, i64 %9
  %11 = load ptr, ptr %10, align 8, !tbaa !48
  ret ptr %11
}

; Function Attrs: inlinehint nounwind uwtable
define internal i32 @Vec_PtrSize(ptr noundef %0) #3 {
  %2 = alloca ptr, align 8
  store ptr %0, ptr %2, align 8, !tbaa !43
  %3 = load ptr, ptr %2, align 8, !tbaa !43
  %4 = getelementptr inbounds nuw %struct.Vec_Ptr_t_, ptr %3, i32 0, i32 1
  %5 = load i32, ptr %4, align 4, !tbaa !45
  ret i32 %5
}

; Function Attrs: nounwind uwtable
define i32 @Abc_NodeBalanceFindLeft(ptr noundef %0) #0 {
  %2 = alloca i32, align 4
  %3 = alloca ptr, align 8
  %4 = alloca ptr, align 8
  %5 = alloca ptr, align 8
  %6 = alloca i32, align 4
  %7 = alloca i32, align 4
  store ptr %0, ptr %3, align 8, !tbaa !43
  call void @llvm.lifetime.start.p0(i64 8, ptr %4) #7
  call void @llvm.lifetime.start.p0(i64 8, ptr %5) #7
  call void @llvm.lifetime.start.p0(i64 4, ptr %6) #7
  %8 = load ptr, ptr %3, align 8, !tbaa !43
  %9 = call i32 @Vec_PtrSize(ptr noundef %8)
  %10 = icmp slt i32 %9, 3
  br i1 %10, label %11, label %12

11:                                               ; preds = %1
  store i32 0, ptr %2, align 4
  store i32 1, ptr %7, align 4
  br label %51

12:                                               ; preds = %1
  %13 = load ptr, ptr %3, align 8, !tbaa !43
  %14 = call i32 @Vec_PtrSize(ptr noundef %13)
  %15 = sub nsw i32 %14, 2
  store i32 %15, ptr %6, align 4, !tbaa !8
  %16 = load ptr, ptr %3, align 8, !tbaa !43
  %17 = load i32, ptr %6, align 4, !tbaa !8
  %18 = call ptr @Vec_PtrEntry(ptr noundef %16, i32 noundef %17)
  store ptr %18, ptr %4, align 8, !tbaa !28
  %19 = load i32, ptr %6, align 4, !tbaa !8
  %20 = add nsw i32 %19, -1
  store i32 %20, ptr %6, align 4, !tbaa !8
  br label %21

21:                                               ; preds = %41, %12
  %22 = load i32, ptr %6, align 4, !tbaa !8
  %23 = icmp sge i32 %22, 0
  br i1 %23, label %24, label %44

24:                                               ; preds = %21
  %25 = load ptr, ptr %3, align 8, !tbaa !43
  %26 = load i32, ptr %6, align 4, !tbaa !8
  %27 = call ptr @Vec_PtrEntry(ptr noundef %25, i32 noundef %26)
  store ptr %27, ptr %5, align 8, !tbaa !28
  %28 = load ptr, ptr %5, align 8, !tbaa !28
  %29 = call ptr @Abc_ObjRegular(ptr noundef %28)
  %30 = getelementptr inbounds nuw %struct.Abc_Obj_t_, ptr %29, i32 0, i32 3
  %31 = load i32, ptr %30, align 4
  %32 = lshr i32 %31, 12
  %33 = load ptr, ptr %4, align 8, !tbaa !28
  %34 = call ptr @Abc_ObjRegular(ptr noundef %33)
  %35 = getelementptr inbounds nuw %struct.Abc_Obj_t_, ptr %34, i32 0, i32 3
  %36 = load i32, ptr %35, align 4
  %37 = lshr i32 %36, 12
  %38 = icmp ne i32 %32, %37
  br i1 %38, label %39, label %40

39:                                               ; preds = %24
  br label %44

40:                                               ; preds = %24
  br label %41

41:                                               ; preds = %40
  %42 = load i32, ptr %6, align 4, !tbaa !8
  %43 = add nsw i32 %42, -1
  store i32 %43, ptr %6, align 4, !tbaa !8
  br label %21, !llvm.loop !44

44:                                               ; preds = %39, %21
  %45 = load i32, ptr %6, align 4, !tbaa !8
  %46 = add nsw i32 %45, 1
  store i32 %46, ptr %6, align 4, !tbaa !8
  %47 = load ptr, ptr %3, align 8, !tbaa !43
  %48 = load i32, ptr %6, align 4, !tbaa !8
  %49 = call ptr @Vec_PtrEntry(ptr noundef %47, i32 noundef %48)
  store ptr %49, ptr %5, align 8, !tbaa !28
  %50 = load i32, ptr %6, align 4, !tbaa !8
  store i32 %50, ptr %2, align 4
  store i32 1, ptr %7, align 4
  br label %51

51:                                               ; preds = %44, %11
  call void @llvm.lifetime.end.p0(i64 4, ptr %6) #7
  call void @llvm.lifetime.end.p0(i64 8, ptr %5) #7
  call void @llvm.lifetime.end.p0(i64 8, ptr %4) #7
  %52 = load i32, ptr %2, align 4
  ret i32 %52
}