; Function Attrs: nofree norecurse nosync nounwind memory(read, inaccessiblemem: none) uwtable
define range(i32 -2147483647, 2147483646) i32 @Abc_NodeBalanceFindLeft(ptr noundef readonly captures(none) %0) local_unnamed_addr #4 {
  %2 = getelementptr i8, ptr %0, i64 4
  %.val = load i32, ptr %2, align 4, !tbaa !24
  %3 = icmp slt i32 %.val, 3
  br i1 %3, label %._crit_edge, label %.lr.ph

.lr.ph:                                           ; preds = %1
  %4 = getelementptr i8, ptr %0, i64 8
  %.val17 = load ptr, ptr %4, align 8, !tbaa !26
  %5 = add nsw i32 %.val, -3
  %6 = zext nneg i32 %.val to i64
  %7 = getelementptr ptr, ptr %.val17, i64 %6
  %8 = getelementptr i8, ptr %7, i64 -16
  %9 = load ptr, ptr %8, align 8, !tbaa !27
  %10 = ptrtoint ptr %9 to i64
  %11 = and i64 %10, -2
  %12 = inttoptr i64 %11 to ptr
  %13 = getelementptr inbounds nuw i8, ptr %12, i64 20
  %14 = load i32, ptr %13, align 4
  %15 = zext nneg i32 %5 to i64
  br label %16

16:                                               ; preds = %.lr.ph, %24
  %indvars.iv = phi i64 [ %15, %.lr.ph ], [ %indvars.iv.next, %24 ]
  %17 = getelementptr inbounds nuw ptr, ptr %.val17, i64 %indvars.iv
  %18 = load ptr, ptr %17, align 8, !tbaa !27
  %19 = ptrtoint ptr %18 to i64
  %20 = and i64 %19, -2
  %21 = inttoptr i64 %20 to ptr
  %22 = getelementptr inbounds nuw i8, ptr %21, i64 20
  %23 = load i32, ptr %22, align 4
  %.not.unshifted = xor i32 %14, %23
  %.not = icmp ult i32 %.not.unshifted, 4096
  br i1 %.not, label %24, label %._crit_edge.split.loop.exit24

24:                                               ; preds = %16
  %indvars.iv.next = add nsw i64 %indvars.iv, -1
  %25 = icmp sgt i64 %indvars.iv, 0
  br i1 %25, label %16, label %._crit_edge, !llvm.loop !53

._crit_edge.split.loop.exit24:                    ; preds = %16
  %26 = trunc nuw nsw i64 %indvars.iv to i32
  %27 = add nsw i32 %26, 1
  br label %._crit_edge

._crit_edge:                                      ; preds = %24, %._crit_edge.split.loop.exit24, %1
  %.015 = phi i32 [ 0, %1 ], [ %27, %._crit_edge.split.loop.exit24 ], [ 0, %24 ]
  ret i32 %.015
}